target datalayout = "e-m:e-p270:32:32-p271:32:32-p272:64:64-i64:64-i128:128-f80:128-n8:16:32:64-S128"
target triple = "x86_64-pc-linux-gnu"

@GC_on_abort = global ptr @GC_default_on_abort, align 8
@GC_current_warn_proc = internal global ptr @GC_default_warn_proc, align 8
@.str.120 = private unnamed_addr constant [37 x i8] c"No client gcj mark proc is specified\00", align 1

; Function Attrs: nounwind uwtable
define internal ptr @GC_gcj_fake_mark_proc(ptr noundef %0, ptr noundef %1, ptr noundef %2, i64 noundef %3) #0 {
  %5 = alloca ptr, align 8
  %6 = alloca ptr, align 8
  %7 = alloca ptr, align 8
  %8 = alloca i64, align 8
  store ptr %0, ptr %5, align 8
  store ptr %1, ptr %6, align 8
  store ptr %2, ptr %7, align 8
  store i64 %3, ptr %8, align 8
  %9 = load ptr, ptr @GC_current_warn_proc, align 8
  %10 = ptrtoint ptr %9 to i64
  %11 = icmp eq i64 %10, -1
  br i1 %11, label %12, label %13

12:                                               ; preds = %4
  br label %15

13:                                               ; preds = %4
  %14 = load ptr, ptr @GC_on_abort, align 8
  call void %14(ptr noundef @.str.120)
  call void @abort() #20
  unreachable

15:                                               ; preds = %12
  %16 = load ptr, ptr %6, align 8
  ret ptr %16
}