; Function Attrs: nounwind uwtable
define internal noundef ptr @GC_gcj_fake_mark_proc(ptr readnone captures(none) %0, ptr noundef readnone returned %1, ptr readnone captures(none) %2, i64 %3) #1 {
  %5 = load ptr, ptr @GC_current_warn_proc, align 8
  %6 = icmp eq ptr %5, inttoptr (i64 -1 to ptr)
  br i1 %6, label %9, label %7

7:                                                ; preds = %4
  %8 = load ptr, ptr @GC_on_abort, align 8
  tail call void %8(ptr noundef nonnull @.str.120) #41
  tail call void @abort() #47
  unreachable

9:                                                ; preds = %4
  ret ptr %1
}